; Function Attrs: mustprogress nounwind uwtable
define dso_local noundef nonnull align 8 dereferenceable(24) ptr @_ZN4llvm9MCContext19getSymbolTableEntryENS_9StringRefE(ptr noundef nonnull align 8 dereferenceable(2432) %0, ptr %1, i64 %2) local_unnamed_addr #0 align 2 {
  %4 = alloca %"struct.llvm::MCSymbolTableValue", align 8
  %5 = getelementptr inbounds nuw i8, ptr %0, i64 1344
  store ptr null, ptr %4, align 8
  %6 = getelementptr inbounds nuw i8, ptr %4, i64 8
  store i32 0, ptr %6, align 8
  %7 = getelementptr inbounds nuw i8, ptr %4, i64 12
  store i8 0, ptr %7, align 4
  %8 = tail call noundef i32 @_ZN4llvm13StringMapImpl4hashENS_9StringRefE(ptr %1, i64 %2) #20
  %9 = call { ptr, i8 } @_ZN4llvm9StringMapINS_18MCSymbolTableValueERNS_20BumpPtrAllocatorImplINS_15MallocAllocatorELm4096ELm4096ELm128EEEE21try_emplace_with_hashIJS1_EEESt4pairINS_17StringMapIteratorIS1_EEbENS_9StringRefEjDpOT_(ptr noundef nonnull align 8 dereferenceable(32) %5, ptr %1, i64 %2, i32 noundef %8, ptr noundef nonnull align 8 dereferenceable(13) %4)
  %.fca.0.extract = extractvalue { ptr, i8 } %9, 0
  %10 = load ptr, ptr %.fca.0.extract, align 8
  ret ptr %10
}